; Function Attrs: mustprogress uwtable
define internal void @"_ZNSt17_Function_handlerIFvvEZN9grpc_core29FakeResolverResponseGenerator20SendResultToResolverENS1_13RefCountedPtrINS1_12FakeResolverEEENS1_8Resolver6ResultEPNS1_12NotificationEE3$_0E9_M_invokeERKSt9_Any_data"(ptr nocapture noundef nonnull readonly align 8 dereferenceable(16) %__functor) #3 align 2 personality ptr @__gxx_personality_v0 {
entry:
  %__functor.val = load ptr, ptr %__functor, align 8
  %0 = load ptr, ptr %__functor.val, align 8
  %shutdown_.i.i.i = getelementptr inbounds i8, ptr %0, i64 185
  %1 = load i8, ptr %shutdown_.i.i.i, align 1
  %2 = and i8 %1, 1
  %tobool.not.i.i.i = icmp eq i8 %2, 0
  br i1 %tobool.not.i.i.i, label %if.then.i.i.i, label %if.end.i.i.i

if.then.i.i.i:                                    ; preds = %entry
  %3 = getelementptr inbounds i8, ptr %__functor.val, i64 8
  %next_result_.i.i.i = getelementptr inbounds i8, ptr %0, i64 56
  %call3.i.i.i = tail call noundef nonnull align 8 dereferenceable(128) ptr @_ZNSt8optionalIN9grpc_core8Resolver6ResultEEaSIS2_EENSt9enable_ifIX7__and_vISt6__not_ISt7is_sameIS3_NSt9remove_cvINSt16remove_referenceIT_E4typeEE4typeEEES6_ISt6__and_IJSt9is_scalarIS2_ES7_IS2_NSt5decayISA_E4typeEEEEESt16is_constructibleIS2_JSA_EESt13is_assignableIRS2_SA_EEERS3_E4typeEOSA_(ptr noundef nonnull align 8 dereferenceable(128) %next_result_.i.i.i, ptr noundef nonnull align 8 dereferenceable(120) %3)
  %4 = load ptr, ptr %__functor.val, align 8
  tail call void @_ZN9grpc_core12FakeResolver21MaybeSendResultLockedEv(ptr noundef nonnull align 8 dereferenceable(186) %4)
  br label %if.end.i.i.i

if.end.i.i.i:                                     ; preds = %if.then.i.i.i, %entry
  %5 = getelementptr inbounds i8, ptr %__functor.val, i64 128
  %6 = load ptr, ptr %5, align 8
  %cmp.not.i.i.i = icmp eq ptr %6, null
  br i1 %cmp.not.i.i.i, label %"_ZSt10__invoke_rIvRZN9grpc_core29FakeResolverResponseGenerator20SendResultToResolverENS0_13RefCountedPtrINS0_12FakeResolverEEENS0_8Resolver6ResultEPNS0_12NotificationEE3$_0JEENSt9enable_ifIX16is_invocable_r_vIT_T0_DpT1_EESC_E4typeEOSD_DpOSE_.exit", label %if.then5.i.i.i

if.then5.i.i.i:                                   ; preds = %if.end.i.i.i
  tail call void @_ZN4absl12lts_202308025Mutex4LockEv(ptr noundef nonnull align 8 dereferenceable(8) %6)
  %notified_.i.i.i.i = getelementptr inbounds i8, ptr %6, i64 16
  store i8 1, ptr %notified_.i.i.i.i, align 8
  %cv_.i.i.i.i = getelementptr inbounds i8, ptr %6, i64 8
  invoke void @_ZN4absl12lts_202308027CondVar9SignalAllEv(ptr noundef nonnull align 8 dereferenceable(8) %cv_.i.i.i.i)
          to label %invoke.cont.i.i.i.i unwind label %lpad.i.i.i.i

invoke.cont.i.i.i.i:                              ; preds = %if.then5.i.i.i
  invoke void @_ZN4absl12lts_202308025Mutex6UnlockEv(ptr noundef nonnull align 8 dereferenceable(8) %6)
          to label %"_ZSt10__invoke_rIvRZN9grpc_core29FakeResolverResponseGenerator20SendResultToResolverENS0_13RefCountedPtrINS0_12FakeResolverEEENS0_8Resolver6ResultEPNS0_12NotificationEE3$_0JEENSt9enable_ifIX16is_invocable_r_vIT_T0_DpT1_EESC_E4typeEOSD_DpOSE_.exit" unwind label %terminate.lpad.i.i.i.i.i

terminate.lpad.i.i.i.i.i:                         ; preds = %invoke.cont.i.i.i.i
  %7 = landingpad { ptr, i32 }
          catch ptr null
  %8 = extractvalue { ptr, i32 } %7, 0
  tail call void @__clang_call_terminate(ptr %8) #18
  unreachable

lpad.i.i.i.i:                                     ; preds = %if.then5.i.i.i
  %9 = landingpad { ptr, i32 }
          cleanup
  invoke void @_ZN4absl12lts_202308025Mutex6UnlockEv(ptr noundef nonnull align 8 dereferenceable(8) %6)
          to label %_ZN4absl12lts_202308029MutexLockD2Ev.exit2.i.i.i.i unwind label %terminate.lpad.i1.i.i.i.i

terminate.lpad.i1.i.i.i.i:                        ; preds = %lpad.i.i.i.i
  %10 = landingpad { ptr, i32 }
          catch ptr null
  %11 = extractvalue { ptr, i32 } %10, 0
  tail call void @__clang_call_terminate(ptr %11) #18
  unreachable

_ZN4absl12lts_202308029MutexLockD2Ev.exit2.i.i.i.i: ; preds = %lpad.i.i.i.i
  resume { ptr, i32 } %9

"_ZSt10__invoke_rIvRZN9grpc_core29FakeResolverResponseGenerator20SendResultToResolverENS0_13RefCountedPtrINS0_12FakeResolverEEENS0_8Resolver6ResultEPNS0_12NotificationEE3$_0JEENSt9enable_ifIX16is_invocable_r_vIT_T0_DpT1_EESC_E4typeEOSD_DpOSE_.exit": ; preds = %if.end.i.i.i, %invoke.cont.i.i.i.i
  ret void
}